(dp1
S'output'
p2
S"<type 'exceptions.SyntaxError'> Set: no tables selected"
p3
sS'layer'
p4
S'C:\\Users\\Harshil\\Desktop\\Acads\\COP 290\\Assignment 1\\moodle-plus\\applications\\MoodlePlus\\controllers/default.py'
p5
sS'code'
p6
S'# -*- coding: utf-8 -*-\n# this file is released under public domain and you can use without limitations\n\n#########################################################################\n## This is a sample controller\n## - index is the default action of any application\n## - user is required for authentication and authorization\n## - download is for downloading files uploaded in the db (does streaming)\n#########################################################################\n\ndef index():\n    """\n    example action using the internationalization operator T and flash\n    rendered by views/default/index.html or views/generic.html\n\n    if you need a simple wiki simply replace the two lines below with:\n    return auth.wiki()\n    """\n    response.flash = T("Welcome on Moodle+")\n    return dict(noti_count=4)\n\ndef grades():\n    grades = db(db.grades.user_id==auth.user.id).select()\n    courses = []\n    for grade in grades:\n        courses.append(db(db.courses.id==grade.registered_course_id.course_id).select().first())\n    return dict(grades=grades, courses=courses)\n\ndef notifications():\n    noti = db(db.notifications.user_id==auth.user.id).select(orderby=~db.notifications.created_at)\n    db(db.notifications.user_id==auth.user.id).update(is_seen=1)\n    return dict(notifications=noti)\n\n\ndef logged_in():\n    return dict(success=auth.is_logged_in(), user=auth.user)\n\ndef logout():\n    return dict(success=True, loggedout=auth.logout())\n\ndef user():\n    """\n    exposes:\n    http://..../[app]/default/user/login\n    http://..../[app]/default/user/logout\n    http://..../[app]/default/user/register\n    http://..../[app]/default/user/profile\n    http://..../[app]/default/user/retrieve_password\n    http://..../[app]/default/user/change_password\n    http://..../[app]/default/user/manage_users (requires membership in\n    use @auth.requires_login()\n        @auth.requires_membership(\'group name\')\n        @auth.requires_permission(\'read\',\'table name\',record_id)\n    to decorate functions that need access control\n    """\n    return dict(form=auth())\n\n\n@cache.action()\ndef download():\n    """\n    allows downloading of uploaded files\n    http://..../[app]/default/download/[filename]\n    """\n    return response.download(request, db)\n\n\ndef call():\n    """\n    exposes services. for example:\n    http://..../[app]/default/call/jsonrpc\n    decorate with @services.jsonrpc the functions to expose\n    supports xml, json, xmlrpc, jsonrpc, amfrpc, rss, csv\n    """\n    return service()\n\n\n@request.restful()\ndef api():\n    response.view = \'generic.\'+request.extension\n    def GET(*args,**vars):\n        patterns = \'auto\'\n        parser = db.parse_as_rest(patterns,args,vars)\n        if parser.status == 200:\n            return dict(content=parser.response)\n        else:\n            raise HTTP(parser.status,parser.error)\n    def POST(table_name,**vars):\n        return db[table_name].validate_and_insert(**vars)\n    def PUT(table_name,record_id,**vars):\n        return db(db[table_name]._id==record_id).update(**vars)\n    def DELETE(table_name,record_id):\n        return db(db[table_name]._id==record_id).delete()\n    return dict(GET=GET, POST=POST, PUT=PUT, DELETE=DELETE)\n\ndef login():\n    userid = request.vars.userid\n    password = request.vars.password\n    user = auth.login_bare(userid,password)\n    return dict(success=False if not user else True, user=user)\n\n###EDIT\'s start###\n\n@auth.requires_login()\ndef newuser():\n    if auth.user.id != 8:\n        return dict(success=False)\n    try:\n        first_name = str(request.vars["first_name"])\n    except Exception, e:\n        raise e\n    try:\n        last_name = str(request.vars["last_name"])\n    except Exception, e:\n        raise e\n    try:\n        email = str(request.vars["email"])\n    except Exception, e:\n        raise e\n    try:\n        username = str(request.vars["username"])\n    except Exception, e:\n        raise e\n    try:\n        entry_no = str(request.vars["entry_no"])\n    except Exception, e:\n        raise e\n    try:\n        type_ = str(request.vars["type_"])\n    except Exception, e:\n        raise e\n    try:\n        password = str(request.vars["password"])\n    except Exception, e:\n        raise e\n    try:\n        hostel = str(request.vars["hostel"])\n    except Exception, e:\n        raise e\n    db.users.insert(first_name=first_name,last_name=last_name,email=email,username=username,entry_no=entry_no,type_=type_,password=password,hostel=hostel)\n    return dict(val=db.users())\n\n\'\'\'\ndef new_resource():\n    db.images.insert(picture = "C:\\Users\\Harshil\\Desktop\\GSoC\\Proposal\\id.png", picture_file="C:\\Users\\Harshil\\Desktop\\GSoC\\Proposal\\id.png")\n    return dict(val = db.images())\n\'\'\'\n\n@auth.requires_login()\ndef new_resource():#for complaints, facing foreign key constraint failed error ; http://10.192.46.248:8000/new_resource.json?name=seqresc&file_=C:\\Users\\Harshil\\Desktop\\GSoC\\Proposal\\id.png\n    try:\n        name = str(request.vars["name"])\n    except Exception, e:\n        raise e\n    try:\n        file_ = str(request.vars["file_"])\n    except Exception, e:\n        raise e\n    #db.compresc.insert(name=name, file_=file("C:\\Users\\Harshil\\Desktop\\GSoC\\Proposal\\sequence_diagram.png") )\n    db.compresc.insert(name=name, user_id=auth.user.id, file_=file(file_) )\n    return dict(val=db.compresc())\n\ndef complaintlist_sorted():#list of all complaints ; /complaintlist_sorted.json/<value> ; value is 0 then by upvotes ; 1 then by latest ; else normally\n    try:\n        value = int(request.args[0])\n    except Exception, e:\n        raise e\n    if value==0:\n        complaints = db(db.complaints).select(orderby=~db.complaints.upvote)\n        return dict(complaints=complaints)\n    elif value==1:\n        complaints = db(db.complaints).select(orderby=~db.complaints.created_at)\n        return dict(complaints=complaints)\n    else:\n        complaints = db(db.complaints).select()\n        return dict(complaints=complaints)\n\ndef complaintlist():#list of all complaints ; /complaintlist.json\n    complaints = db(db.complaints).select()\n    return dict(complaints=complaints)\n\ndef mycomplaints():\n    complaints = db(db.complaints).select()\n    res = []\n    for complaint in complaints:\n        if complaint.user_id==auth.user.id:\n            res.append(complaint)\n    return dict(mycomplaints=res)\n\ndef allcomplaints():\n    complaints = db(db.complaints).select()\n    res = []\n    for complaint in complaints:\n        if complaint.type_==0:\n            if complaint.user_id==auth.user.id:\n                res.append(complaints)\n#       elif complaint.type_==1:\n#           if db(db.users().user_id==complaint.user_id).select().first().hostel==auth.user.hostel:\n#               res.append(complaints)\n        elif complaint.type_==2:\n            res.append(complaint)\n    return dict(mycomplaints=db(db.users()).select())\n\ndef userlist():#list of all users ; /userlist.json\n    return dict(val=db(db.users).select())\n\n@auth.requires_login()\ndef newcomplaint():# ; /newcomplaint.json?comp_type=<comp_type>&title=<title>&description=<description>&assignedval=<assignedval>&anonymity=<anonymity>\n    if ("comp_type" in request.vars) and ("description" in request.vars):\n        comp_type = int(request.vars["comp_type"])\n        description = str(request.vars["description"]).strip()\n        title = str(request.vars["title"]).strip()\n        assignedval = int(request.vars["assignedval"]) #0 for electrician, 1 for plumber, 2 for warden, 3 for dean\n        anonymity = int(request.vars["anonymity"]) #0 for public, 1 for anonymous\n        users = []\n        assignedtol=3\n        if comp_type==0:\n            resolver = auth.user.id\n            users.append(auth.user)\n            if assignedval==0:\n                assignedtol= (2*auth.user.hostel) + 2\n            elif assignedval==1:\n                assignedtol= (2*auth.user.hostel) + 2\n        elif comp_type==1:\n            resolver = auth.user.hostel\n            if assignedval==2:\n                assignedtol= auth.user.hostel\n            for val in db(db.users.hostel==auth.user.hostel).select():\n                users.append(val)\n        elif comp_type==2:\n            resolver = 3\n            if assignedval==2:\n                assignedtol= 3\n            for val in db(db.users).select():\n                users.append(val)\n        cid = db.complaints.insert(user_id=auth.user.id, type_=comp_type, title=title, description=description, resolved=False, resolver=resolver, assignedto=assignedtol, anonymity=anonymity)\n        for user in users:\n            db.notifications.insert(user_id=user.id, description="%s posted a new complaint for %s"%((auth.user.first_name+" "+auth.user.last_name).title(), title))\n        \'\'\'\n        if comp_type==0:\n            users.append(auth.user.id)\n        elif comp_type==1:\n            users = (db.users.hostel==auth.user.hostel)\n        elif comp_type==2:\n            users = db.users\n        for user in users:\n            db.notifications.insert(user_id=user, description="%s posted a new complaint for %s"%((auth.user.first_name+" "+auth.user.last_name).title(), title))\n        \'\'\'\n        return dict(success=True, cid=cid)\n    else:\n        return dict(success=False)\n\n@auth.requires_login()\ndef resolve():#resolves complaint (input = complaint_id) ; /resolve.json/<complaint_id>\n    try:\n        cid = int(request.args[0])\n    except Exception, e:\n        raise e\n    if (db(db.complaints.id==cid).select().first().resolver)==auth.user.id:\n        db(db.complaints.id==cid).update(resolved = True)\n        return dict(success=True)\n    return dict(success=False)\n    #return dict(val=db(db.complaints.id==cid).select().first().resolver)\n\n@auth.requires_login()\ndef complaint():#return complaint with comments (input = complaint_id) ; /complaint.json/<complaint_id>\n    try:\n        cid = int(request.args[0])\n    except Exception, e:\n        raise e\n    complaints = db(db.complaints.id==cid).select().first()\n    comments, comment_users = get_comments(cid)\n    tags, tag_users = get_tags(cid)\n    return dict(complaints=complaints, comments=comments, comment_users=comment_users, tags=tags, tag_users=tag_users)\n\ndef get_comments(complaint_id):#caller function\n    comments =  db(db.comcomp.complaint_id==complaint_id).select()\n    comment_users = []\n    for comment in comments:\n        comment_users.append(db(db.users.id==comment.user_id).select().first())\n    return comments, comment_users\n\ndef get_tags(complaint_id):#caller function\n    tags =  db(db.comtag.complaint_id==complaint_id).select()\n    tag_users = []\n    for tag in tags:\n        tag_users.append(db(db.users.id==tag.user_id).select().first())\n    return tags, tag_users\n\n@auth.requires_login()\ndef upvote():#mark vote ; /upvote.json?complaint_id=<cid>\n    try:\n        cid = int(request.vars["complaint_id"])\n    except Exception, e:\n        raise e\n    for val in db(db.vote.complaint_id==cid).select():\n        if val.user_id==auth.user.id:\n            return dict(success=False)\n    val = db(db.complaints.id==cid).select().first().upvote\n    val = val + 1\n    db(db.complaints.id==cid).update(upvote = val)\n    db.vote.insert(complaint_id=cid, user_id=auth.user.id, type_=1)\n    return dict(val = db(db.complaints.id==cid).select())\n\n@auth.requires_login()\ndef downvote():#mark vote ; /downvote.json?complaint_id=<cid>\n    try:\n        cid = int(request.vars["complaint_id"])\n    except Exception, e:\n        raise e\n    for val in db(db.vote.complaint_id==cid).select():\n        if val.user_id==auth.user.id:\n            return dict(success=False)\n    val = db(db.complaints.id==cid).select().first().downvote\n    val = val + 1\n    db(db.complaints.id==cid).update(downvote = val)\n    db.vote.insert(complaint_id=cid, user_id=auth.user.id, type_=-1)\n    return dict(val = db(db.complaints.id==cid).select())\n\n@auth.requires_login()\ndef put_comment():\n    try:\n        cid = int(request.vars["complaint_id"])\n    except Exception, e:\n        raise e\n    try:\n        desc = str(request.vars["description"])\n    except Exception, e:\n        raise e\n    db.comcomp.insert(complaint_id=cid, user_id=auth.user.id, description=desc)\n    return dict(val = db(db.complaints.id==cid).select())\n\n@auth.requires_login()\ndef put_tag():\n    try:\n        cid = int(request.vars["complaint_id"])\n    except Exception, e:\n        raise e\n    try:\n        desc = str(request.vars["description"])\n    except Exception, e:\n        raise e\n    db.comtag.insert(complaint_id=cid, user_id=auth.user.id, description=desc)\n    return dict(val = db(db.complaints.id==cid).select())\n\n###EDIT\'s end###\n\ndef populate_db():\n    ## Populate DB Script\n\n    ## clear database\n    for table in db.tables():\n            try:\n                    db(db[table].id>0).delete()\n                    print "Cleared",table\n            except Exception, e:\n                    print "Couldn\'t clear",table\n\n    ## create 3 students\n    db.users.insert(\n            first_name="Saiesvar",  # Kumaon\n            last_name="Vipparathy",\n            email="cs1140266@cse.iitd.ac.in",\n            username="cs1140266",\n            entry_no="2014CS10266",\n            type_=0,\n            password="saiesvar",\n    )\n\n    db.users.insert(\n            first_name="Harshil",   # Girnar\n            last_name="Meena",\n            email="cs1140222@cse.iitd.ac.in",\n            username="cs1140222",\n            entry_no="2014CS10222",\n            type_=0,\n            password="harshil",\n    )\n\n    db.users.insert(\n            first_name="Nagaraju",  # Girnar\n            last_name="Ajmeera",\n            email="cs1140208@cse.iitd.ac.in",\n            username="cs1140208",\n            entry_no="2014CS10208",\n            type_=0,\n            password="nagaraju",\n    )\n\n\n    ## create 2 wardens + 1 dean\n\n    db.users.insert(\n            first_name="Warden",\n            last_name="Kumaon",\n            email="wardenkumaon@cse.moodle.in",\n            username="wardenkumaon",\n            entry_no="wardenkumaon",\n            type_=1,\n            password="wardenkumaon",\n    )\n\n    db.users.insert(\n            first_name="Warden",\n            last_name="Girnar",\n            email="wardengirnar@cse.iitd.ac.in",\n            username="wardengirnar",\n            entry_no="wardengirnar",\n            type_=1,\n            password="wardengirnar",\n    )\n\n\n    db.users.insert(\n            first_name="Dean",\n            last_name="Student Welfare",\n            email="dean@cse.iitd.ac.in",\n            username="dean",\n            entry_no="dean",\n            type_=1,\n            password="dean",\n    )\n\n    ## create 3 individual courses + 2 hostel courses + 1 insti course\n    db.courses.insert(\n            name="saiesvarcourse",\n            code="saiesvarcourse",\n            description="none",\n            credits=3,\n            l_t_p="none"\n    )\n\n    db.courses.insert(\n            name="harshilcourse",\n            code="harshilcourse",\n            description="none",\n            credits=3,\n            l_t_p="none"\n    )\n\n    db.courses.insert(\n            name="nagarajucourse",\n            code="nagarajucourse",\n            description="none",\n            credits=3,\n            l_t_p="none"\n    )\n\n    db.courses.insert(\n            name="kumaoncourse",\n            code="kumaoncourse",\n            description="none",\n            credits=3,\n            l_t_p="none"\n    )\n\n    db.courses.insert(\n            name="girnarcourse",\n            code="girnarcourse",\n            description="none",\n            credits=3,\n            l_t_p="none"\n    )\n\n    db.courses.insert(\n            name="iitcourse",\n            code="iitcourse",\n            description="none",\n            credits=3,\n            l_t_p="none"\n    )\n\n\n\n    ## create 7 registered courses\n    db.registered_courses.insert(\t\n            course_id=1,\n            professor=1,\n            year_=2016,\n            semester=2,\n            starting_date=datetime(2016,1,1),\n            ending_date=datetime(2016,5,10),\n    )\n\n    db.registered_courses.insert(\n            course_id=2,\n            professor=2,\n            year_=2016,\n            semester=2,\n            starting_date=datetime(2016,1,1),\n            ending_date=datetime(2016,5,10),\n    )\n\n    db.registered_courses.insert(\n            course_id=3,\n            professor=3,\n            year_=2016,\n            semester=2,\n            starting_date=datetime(2016,1,1),\n            ending_date=datetime(2016,5,10),\n    )\n\n    db.registered_courses.insert(\n            course_id=4,\n            professor=4,\n            year_=2016,\n            semester=2,\n            starting_date=datetime(2016,1,1),\n            ending_date=datetime(2016,5,10),\n    )\n\n    db.registered_courses.insert(\n            course_id=5,\n            professor=5,\n            year_=2016,\n            semester=2,\n            starting_date=datetime(2016,1,1),\n            ending_date=datetime(2016,5,10),\n    )\n\n    db.registered_courses.insert(\n            course_id=6,\n            professor=6,\n            year_=2016,\n            semester=2,\n            starting_date=datetime(2016,1,1),\n            ending_date=datetime(2016,5,10),\n    )\n\n\n    ## register 3 students for 5 courses each out of 7 registered courses\n    db.student_registrations.insert(student_id=1,registered_course_id=4)\n    db.student_registrations.insert(student_id=2,registered_course_id=5)\n    db.student_registrations.insert(student_id=3,registered_course_id=5)\n    db.student_registrations.insert(student_id=1,registered_course_id=6)\n    db.student_registrations.insert(student_id=2,registered_course_id=6)\n    db.student_registrations.insert(student_id=3,registered_course_id=6)\n\n\n\n    ## Create Static Variables\n    db.static_vars.insert(\n            name="current_year",\n            int_value=2016,\n            string_value="2016"\n    )\n\n    db.static_vars.insert(\n            name="current_sem",\n            int_value=2,\n            string_value="2"\n    )\n\ndef api():\n    return """\nMoodle Plus API (ver 1.0)\n-------------------------\n\nUrl: /default/login.json\nInput params:\n    userid: (string)\n    password: (string)\nOutput params:\n    success: (boolean) True if login success and False otherwise\n    user: (json) User details if login is successful otherwise False\n\n\nUrl: /default/logout.json\nInput params:\nOutput params:\n    success: (boolean) True if logout successful and False otherwise\n\n\nUrl: /courses/list.json\nInput params:\nOutput params:\n    current_year: (int)\n    current_sem: (int) 0 for summer, 1 break, 2 winter\n    courses: (List) list of courses\n    user: (dictionary) user details\n\nUrl: /threads/new.json\nInput params:\n    title: (string) can\'t be empty\n    description: (string) can\'t be empty\n    course_code: (string) must be a registered courses\nOutput params:\n    success: (bool) True or False depending on whether thread was posted\n    thread_id: (bool) id of new thread created\n\n    """\n\nresponse._vars=response._caller(allcomplaints)\n'
p7
sS'snapshot'
p8
(dp9
S'exception'
p10
(dp11
S'__getslice__'
p12
S"<method-wrapper '__getslice__' of exceptions.SyntaxError object>"
p13
sS'text'
p14
S'None'
p15
sS'__str__'
p16
S"<method-wrapper '__str__' of exceptions.SyntaxError object>"
p17
sS'__reduce__'
p18
S'<built-in method __reduce__ of exceptions.SyntaxError object>'
p19
sS'__dict__'
p20
S'{}'
p21
sS'__sizeof__'
p22
S'<built-in method __sizeof__ of exceptions.SyntaxError object>'
p23
sS'__init__'
p24
S"<method-wrapper '__init__' of exceptions.SyntaxError object>"
p25
sS'__setattr__'
p26
S"<method-wrapper '__setattr__' of exceptions.SyntaxError object>"
p27
sS'__reduce_ex__'
p28
S'<built-in method __reduce_ex__ of exceptions.SyntaxError object>'
p29
sS'__new__'
p30
S'<built-in method __new__ of type object>'
p31
sS'__format__'
p32
S'<built-in method __format__ of exceptions.SyntaxError object>'
p33
sS'__class__'
p34
S"<type 'exceptions.SyntaxError'>"
p35
sS'filename'
p36
S'None'
p37
sS'lineno'
p38
S'None'
p39
sS'msg'
p40
S"'Set: no tables selected'"
p41
sS'__doc__'
p42
S"'Invalid syntax.'"
p43
sS'__getitem__'
p44
S"<method-wrapper '__getitem__' of exceptions.SyntaxError object>"
p45
sS'__setstate__'
p46
S'<built-in method __setstate__ of exceptions.SyntaxError object>'
p47
sS'__getattribute__'
p48
S"<method-wrapper '__getattribute__' of exceptions.SyntaxError object>"
p49
sS'print_file_and_line'
p50
S'None'
p51
sS'args'
p52
S"('Set: no tables selected',)"
p53
sS'__subclasshook__'
p54
S'<built-in method __subclasshook__ of type object>'
p55
sS'offset'
p56
S'None'
p57
sS'__unicode__'
p58
S'<built-in method __unicode__ of exceptions.SyntaxError object>'
p59
sS'__delattr__'
p60
S"<method-wrapper '__delattr__' of exceptions.SyntaxError object>"
p61
sS'__repr__'
p62
S"<method-wrapper '__repr__' of exceptions.SyntaxError object>"
p63
sS'__hash__'
p64
S"<method-wrapper '__hash__' of exceptions.SyntaxError object>"
p65
ssS'evalue'
p66
S'Set: no tables selected'
p67
sS'request'
p68
cgluon.html
XML_unpickle
p69
(S's\x9er\x00\x00<div><table><tr><td style="font-weight:bold;vertical-align:top;">ajax</td><td style="vertical-align:top;">:</td><td><div>False</div></td></tr><tr><td style="font-weight:bold;vertical-align:top;">application</td><td style="vertical-align:top;">:</td><td><div>MoodlePlus</div></td></tr><tr><td style="font-weight:bold;vertical-align:top;">args</td><td style="vertical-align:top;">:</td><td><div><table></table></div></td></tr><tr><td style="font-weight:bold;vertical-align:top;">cid</td><td style="vertical-align:top;">:</td><td><div>None</div></td></tr><tr><td style="font-weight:bold;vertical-align:top;">client</td><td style="vertical-align:top;">:</td><td><div>10.192.46.248</div></td></tr><tr><td style="font-weight:bold;vertical-align:top;">controller</td><td style="vertical-align:top;">:</td><td><div>default</div></td></tr><tr><td style="font-weight:bold;vertical-align:top;">cookies</td><td style="vertical-align:top;">:</td><td><div><table><tr><td style="font-weight:bold;vertical-align:top;">gsScrollPos</td><td style="vertical-align:top;">:</td><td><div><table><tr><td style="font-weight:bold;vertical-align:top;">comment</td><td style="vertical-align:top;">:</td><td><div></div></td></tr><tr><td style="font-weight:bold;vertical-align:top;">domain</td><td style="vertical-align:top;">:</td><td><div></div></td></tr><tr><td style="font-weight:bold;vertical-align:top;">expires</td><td style="vertical-align:top;">:</td><td><div></div></td></tr><tr><td style="font-weight:bold;vertical-align:top;">httponly</td><td style="vertical-align:top;">:</td><td><div></div></td></tr><tr><td style="font-weight:bold;vertical-align:top;">max-age</td><td style="vertical-align:top;">:</td><td><div></div></td></tr><tr><td style="font-weight:bold;vertical-align:top;">path</td><td style="vertical-align:top;">:</td><td><div></div></td></tr><tr><td style="font-weight:bold;vertical-align:top;">secure</td><td style="vertical-align:top;">:</td><td><div></div></td></tr><tr><td style="font-weight:bold;vertical-align:top;">version</td><td style="vertical-align:top;">:</td><td><div></div></td></tr></table></div></td></tr><tr><td style="font-weight:bold;vertical-align:top;">session_id_admin</td><td style="vertical-align:top;">:</td><td><div>10.192.46.248-b4a7943c-e4ed-4314-bf11-2f23e91b16f7<table><tr><td style="font-weight:bold;vertical-align:top;">comment</td><td style="vertical-align:top;">:</td><td><div></div></td></tr><tr><td style="font-weight:bold;vertical-align:top;">domain</td><td style="vertical-align:top;">:</td><td><div></div></td></tr><tr><td style="font-weight:bold;vertical-align:top;">expires</td><td style="vertical-align:top;">:</td><td><div></div></td></tr><tr><td style="font-weight:bold;vertical-align:top;">httponly</td><td style="vertical-align:top;">:</td><td><div></div></td></tr><tr><td style="font-weight:bold;vertical-align:top;">max-age</td><td style="vertical-align:top;">:</td><td><div></div></td></tr><tr><td style="font-weight:bold;vertical-align:top;">path</td><td style="vertical-align:top;">:</td><td><div></div></td></tr><tr><td style="font-weight:bold;vertical-align:top;">secure</td><td style="vertical-align:top;">:</td><td><div></div></td></tr><tr><td style="font-weight:bold;vertical-align:top;">version</td><td style="vertical-align:top;">:</td><td><div></div></td></tr></table></div></td></tr><tr><td style="font-weight:bold;vertical-align:top;">session_id_complaint</td><td style="vertical-align:top;">:</td><td><div>10.192.46.248-f2ec2fb5-0af6-4c2f-9fe6-670e573e2796<table><tr><td style="font-weight:bold;vertical-align:top;">comment</td><td style="vertical-align:top;">:</td><td><div></div></td></tr><tr><td style="font-weight:bold;vertical-align:top;">domain</td><td style="vertical-align:top;">:</td><td><div></div></td></tr><tr><td style="font-weight:bold;vertical-align:top;">expires</td><td style="vertical-align:top;">:</td><td><div></div></td></tr><tr><td style="font-weight:bold;vertical-align:top;">httponly</td><td style="vertical-align:top;">:</td><td><div></div></td></tr><tr><td style="font-weight:bold;vertical-align:top;">max-age</td><td style="vertical-align:top;">:</td><td><div></div></td></tr><tr><td style="font-weight:bold;vertical-align:top;">path</td><td style="vertical-align:top;">:</td><td><div></div></td></tr><tr><td style="font-weight:bold;vertical-align:top;">secure</td><td style="vertical-align:top;">:</td><td><div></div></td></tr><tr><td style="font-weight:bold;vertical-align:top;">version</td><td style="vertical-align:top;">:</td><td><div></div></td></tr></table></div></td></tr><tr><td style="font-weight:bold;vertical-align:top;">session_id_moodleplus</td><td style="vertical-align:top;">:</td><td><div>10.192.46.248-bc501ae5-c8fb-4f67-8b88-eaba6a1b011a<table><tr><td style="font-weight:bold;vertical-align:top;">comment</td><td style="vertical-align:top;">:</td><td><div></div></td></tr><tr><td style="font-weight:bold;vertical-align:top;">domain</td><td style="vertical-align:top;">:</td><td><div></div></td></tr><tr><td style="font-weight:bold;vertical-align:top;">expires</td><td style="vertical-align:top;">:</td><td><div></div></td></tr><tr><td style="font-weight:bold;vertical-align:top;">httponly</td><td style="vertical-align:top;">:</td><td><div></div></td></tr><tr><td style="font-weight:bold;vertical-align:top;">max-age</td><td style="vertical-align:top;">:</td><td><div></div></td></tr><tr><td style="font-weight:bold;vertical-align:top;">path</td><td style="vertical-align:top;">:</td><td><div></div></td></tr><tr><td style="font-weight:bold;vertical-align:top;">secure</td><td style="vertical-align:top;">:</td><td><div></div></td></tr><tr><td style="font-weight:bold;vertical-align:top;">version</td><td style="vertical-align:top;">:</td><td><div></div></td></tr></table></div></td></tr><tr><td style="font-weight:bold;vertical-align:top;">session_id_welcome</td><td style="vertical-align:top;">:</td><td><div>10.192.46.248-775b24ac-dfb7-4a0b-a660-8159f72a787b<table><tr><td style="font-weight:bold;vertical-align:top;">comment</td><td style="vertical-align:top;">:</td><td><div></div></td></tr><tr><td style="font-weight:bold;vertical-align:top;">domain</td><td style="vertical-align:top;">:</td><td><div></div></td></tr><tr><td style="font-weight:bold;vertical-align:top;">expires</td><td style="vertical-align:top;">:</td><td><div></div></td></tr><tr><td style="font-weight:bold;vertical-align:top;">httponly</td><td style="vertical-align:top;">:</td><td><div></div></td></tr><tr><td style="font-weight:bold;vertical-align:top;">max-age</td><td style="vertical-align:top;">:</td><td><div></div></td></tr><tr><td style="font-weight:bold;vertical-align:top;">path</td><td style="vertical-align:top;">:</td><td><div></div></td></tr><tr><td style="font-weight:bold;vertical-align:top;">secure</td><td style="vertical-align:top;">:</td><td><div></div></td></tr><tr><td style="font-weight:bold;vertical-align:top;">version</td><td style="vertical-align:top;">:</td><td><div></div></td></tr></table></div></td></tr><tr><td style="font-weight:bold;vertical-align:top;">toShowIxigo</td><td style="vertical-align:top;">:</td><td><div>1<table><tr><td style="font-weight:bold;vertical-align:top;">comment</td><td style="vertical-align:top;">:</td><td><div></div></td></tr><tr><td style="font-weight:bold;vertical-align:top;">domain</td><td style="vertical-align:top;">:</td><td><div></div></td></tr><tr><td style="font-weight:bold;vertical-align:top;">expires</td><td style="vertical-align:top;">:</td><td><div></div></td></tr><tr><td style="font-weight:bold;vertical-align:top;">httponly</td><td style="vertical-align:top;">:</td><td><div></div></td></tr><tr><td style="font-weight:bold;vertical-align:top;">max-age</td><td style="vertical-align:top;">:</td><td><div></div></td></tr><tr><td style="font-weight:bold;vertical-align:top;">path</td><td style="vertical-align:top;">:</td><td><div></div></td></tr><tr><td style="font-weight:bold;vertical-align:top;">secure</td><td style="vertical-align:top;">:</td><td><div></div></td></tr><tr><td style="font-weight:bold;vertical-align:top;">version</td><td style="vertical-align:top;">:</td><td><div></div></td></tr></table></div></td></tr></table></div></td></tr><tr><td style="font-weight:bold;vertical-align:top;">env</td><td style="vertical-align:top;">:</td><td><div><table><tr><td style="font-weight:bold;vertical-align:top;">HTTP_ACCEPT</td><td style="vertical-align:top;">:</td><td><div>text/html,application/xhtml+xml,application/xml;q=0.9,image/webp,*/*;q=0.8</div></td></tr><tr><td style="font-weight:bold;vertical-align:top;">HTTP_ACCEPT_ENCODING</td><td style="vertical-align:top;">:</td><td><div>gzip, deflate, sdch</div></td></tr><tr><td style="font-weight:bold;vertical-align:top;">HTTP_ACCEPT_LANGUAGE</td><td style="vertical-align:top;">:</td><td><div>en-US,en;q=0.8</div></td></tr><tr><td style="font-weight:bold;vertical-align:top;">HTTP_ALEXATOOLBAR_ALX_NS_PH</td><td style="vertical-align:top;">:</td><td><div>AlexaToolbar/alxg-3.3</div></td></tr><tr><td style="font-weight:bold;vertical-align:top;">HTTP_CACHE_CONTROL</td><td style="vertical-align:top;">:</td><td><div>max-age=0</div></td></tr><tr><td style="font-weight:bold;vertical-align:top;">HTTP_CONNECTION</td><td style="vertical-align:top;">:</td><td><div>keep-alive</div></td></tr><tr><td style="font-weight:bold;vertical-align:top;">HTTP_COOKIE</td><td style="vertical-align:top;">:</td><td><div>toShowIxigo=1; session_id_complaint=10.192.46.248-f2ec2fb5-0af6-4c2f-9fe6-670e573e2796; session_id_welcome=10.192.46.248-775b24ac-dfb7-4a0b-a660-8159f72a787b; gsScrollPos=; session_id_moodleplus=10.192.46.248-bc501ae5-c8fb-4f67-8b88-eaba6a1b011a; session_id_admin=10.192.46.248-b4a7943c-e4ed-4314-bf11-2f23e91b16f7</div></td></tr><tr><td style="font-weight:bold;vertical-align:top;">HTTP_HOST</td><td style="vertical-align:top;">:</td><td><div>10.192.46.248:8000</div></td></tr><tr><td style="font-weight:bold;vertical-align:top;">HTTP_SAVE_DATA</td><td style="vertical-align:top;">:</td><td><div>on</div></td></tr><tr><td style="font-weight:bold;vertical-align:top;">HTTP_UPGRADE_INSECURE_REQUESTS</td><td style="vertical-align:top;">:</td><td><div>1</div></td></tr><tr><td style="font-weight:bold;vertical-align:top;">HTTP_USER_AGENT</td><td style="vertical-align:top;">:</td><td><div>Mozilla/5.0 (Windows NT 6.3; WOW64) AppleWebKit/537.36 (KHTML, like Gecko) Chrome/49.0.2623.87 Safari/537.36</div></td></tr><tr><td style="font-weight:bold;vertical-align:top;">PATH_INFO</td><td style="vertical-align:top;">:</td><td><div>/allcomplaints.json</div></td></tr><tr><td style="font-weight:bold;vertical-align:top;">QUERY_STRING</td><td style="vertical-align:top;">:</td><td><div></div></td></tr><tr><td style="font-weight:bold;vertical-align:top;">REMOTE_ADDR</td><td style="vertical-align:top;">:</td><td><div>10.192.46.248</div></td></tr><tr><td style="font-weight:bold;vertical-align:top;">REMOTE_PORT</td><td style="vertical-align:top;">:</td><td><div>64933</div></td></tr><tr><td style="font-weight:bold;vertical-align:top;">REQUEST_METHOD</td><td style="vertical-align:top;">:</td><td><div>GET</div></td></tr><tr><td style="font-weight:bold;vertical-align:top;">SCRIPT_NAME</td><td style="vertical-align:top;">:</td><td><div></div></td></tr><tr><td style="font-weight:bold;vertical-align:top;">SERVER_NAME</td><td style="vertical-align:top;">:</td><td><div>admin</div></td></tr><tr><td style="font-weight:bold;vertical-align:top;">SERVER_PORT</td><td style="vertical-align:top;">:</td><td><div>8000</div></td></tr><tr><td style="font-weight:bold;vertical-align:top;">SERVER_PROTOCOL</td><td style="vertical-align:top;">:</td><td><div>HTTP/1.1</div></td></tr><tr><td style="font-weight:bold;vertical-align:top;">SERVER_SOFTWARE</td><td style="vertical-align:top;">:</td><td><div>Rocket 1.2.6</div></td></tr><tr><td style="font-weight:bold;vertical-align:top;">app_folders</td><td style="vertical-align:top;">:</td><td><div>set([&#x27;C:\\\\Users\\\\Harshil\\\\Desktop\\\\Acads\\\\COP 290\\\\Assignment 1\\\\moodle-plus\\\\applications\\\\MoodlePlus\\\\&#x27;, &#x27;C:\\\\Users\\\\Harshil\\\\Desktop\\\\Acads\\\\COP 290\\\\Assignment 1\\\\moodle-plus\\\\applications\\\\admin\\\\&#x27;])</div></td></tr><tr><td style="font-weight:bold;vertical-align:top;">applications_parent</td><td style="vertical-align:top;">:</td><td><div>C:\\Users\\Harshil\\Desktop\\Acads\\COP 290\\Assignment 1\\moodle-plus</div></td></tr><tr><td style="font-weight:bold;vertical-align:top;">cmd_args</td><td style="vertical-align:top;">:</td><td><div><table></table></div></td></tr><tr><td style="font-weight:bold;vertical-align:top;">cmd_options</td><td style="vertical-align:top;">:</td><td><div>&lt;Values at 0x1fc2300: {&#x27;verbose&#x27;: False, &#x27;ip&#x27;: &#x27;127.0.0.1&#x27;, &#x27;debuglevel&#x27;: 30, &#x27;with_scheduler&#x27;: False, &#x27;ips&#x27;: [&#x27;fe80::840:2412:40d7:393f%5&#x27;, &#x27;2001:0:5ef5:79fb:246f:1ef0:f53f:d107&#x27;, &#x27;fe80::c977:e3a8:3196:b8a7%18&#x27;, &#x27;fe80::246f:1ef0:f53f:d107%7&#x27;, &#x27;10.192.46.248&#x27;, &#x27;192.168.56.1&#x27;], &#x27;shutdown_timeout&#x27;: 5, &#x27;taskbar&#x27;: False, &#x27;with_coverage&#x27;: False, &#x27;scheduler_groups&#x27;: None, &#x27;port&#x27;: 8000, &#x27;maxthreads&#x27;: None, &#x27;softcron&#x27;: False, &#x27;server_name&#x27;: &#x27;admin&#x27;, &#x27;bpython&#x27;: False, &#x27;nogui&#x27;: False, &#x27;pid_filename&#x27;: &#x27;httpserver.pid&#x27;, &#x27;print_errors&#x27;: False, &#x27;extcron&#x27;: False, &#x27;runcron&#x27;: False, &#x27;run_system_tests&#x27;: False, &#x27;test&#x27;: None, &#x27;folder&#x27;: &#x27;C:\\\\Users\\\\Harshil\\\\Desktop\\\\Acads\\\\COP 290\\\\Assignment 1\\\\moodle-plus&#x27;, &#x27;config&#x27;: &#x27;&#x27;, &#x27;minthreads&#x27;: None, &#x27;shell&#x27;: None, &#x27;run&#x27;: &#x27;&#x27;, &#x27;log_filename&#x27;: &#x27;httpserver.log&#x27;, &#x27;profiler_dir&#x27;: None, &#x27;args&#x27;: [&#x27;&#x27;], &#x27;socket_timeout&#x27;: 5, &#x27;ssl_ca_certificate&#x27;: None, &#x27;scheduler&#x27;: None, &#x27;interfaces&#x27;: None, &#x27;ssl_private_key&#x27;: &#x27;&#x27;, &#x27;gae&#x27;: None, &#x27;password&#x27;: &#x27;&lt;ask&gt;&#x27;, &#x27;request_queue_size&#x27;: 5, &#x27;ssl_certificate&#x27;: &#x27;&#x27;, &#x27;cronjob&#x27;: False, &#x27;numthreads&#x27;: None, &#x27;quiet&#x27;: False, &#x27;import_models&#x27;: False, &#x27;timeout&#x27;: 10, &#x27;plain&#x27;: False, &#x27;nobanner&#x27;: False}&gt;</div></td></tr><tr><td style="font-weight:bold;vertical-align:top;">db_sessions</td><td style="vertical-align:top;">:</td><td><div>set([])</div></td></tr><tr><td style="font-weight:bold;vertical-align:top;">debugging</td><td style="vertical-align:top;">:</td><td><div>True</div></td></tr><tr><td style="font-weight:bold;vertical-align:top;">gluon_parent</td><td style="vertical-align:top;">:</td><td><div>C:\\Users\\Harshil\\Desktop\\Acads\\COP 290\\Assignment 1\\moodle-plus</div></td></tr><tr><td style="font-weight:bold;vertical-align:top;">http_accept</td><td style="vertical-align:top;">:</td><td><div>text/html,application/xhtml+xml,application/xml;q=0.9,image/webp,*/*;q=0.8</div></td></tr><tr><td style="font-weight:bold;vertical-align:top;">http_accept_encoding</td><td style="vertical-align:top;">:</td><td><div>gzip, deflate, sdch</div></td></tr><tr><td style="font-weight:bold;vertical-align:top;">http_accept_language</td><td style="vertical-align:top;">:</td><td><div>en-US,en;q=0.8</div></td></tr><tr><td style="font-weight:bold;vertical-align:top;">http_alexatoolbar_alx_ns_ph</td><td style="vertical-align:top;">:</td><td><div>AlexaToolbar/alxg-3.3</div></td></tr><tr><td style="font-weight:bold;vertical-align:top;">http_cache_control</td><td style="vertical-align:top;">:</td><td><div>max-age=0</div></td></tr><tr><td style="font-weight:bold;vertical-align:top;">http_connection</td><td style="vertical-align:top;">:</td><td><div>keep-alive</div></td></tr><tr><td style="font-weight:bold;vertical-align:top;">http_cookie</td><td style="vertical-align:top;">:</td><td><div>toShowIxigo=1; session_id_complaint=10.192.46.248-f2ec2fb5-0af6-4c2f-9fe6-670e573e2796; session_id_welcome=10.192.46.248-775b24ac-dfb7-4a0b-a660-8159f72a787b; gsScrollPos=; session_id_moodleplus=10.192.46.248-bc501ae5-c8fb-4f67-8b88-eaba6a1b011a; session_id_admin=10.192.46.248-b4a7943c-e4ed-4314-bf11-2f23e91b16f7</div></td></tr><tr><td style="font-weight:bold;vertical-align:top;">http_host</td><td style="vertical-align:top;">:</td><td><div>10.192.46.248:8000</div></td></tr><tr><td style="font-weight:bold;vertical-align:top;">http_save_data</td><td style="vertical-align:top;">:</td><td><div>on</div></td></tr><tr><td style="font-weight:bold;vertical-align:top;">http_upgrade_insecure_requests</td><td style="vertical-align:top;">:</td><td><div>1</div></td></tr><tr><td style="font-weight:bold;vertical-align:top;">http_user_agent</td><td style="vertical-align:top;">:</td><td><div>Mozilla/5.0 (Windows NT 6.3; WOW64) AppleWebKit/537.36 (KHTML, like Gecko) Chrome/49.0.2623.87 Safari/537.36</div></td></tr><tr><td style="font-weight:bold;vertical-align:top;">is_jython</td><td style="vertical-align:top;">:</td><td><div>False</div></td></tr><tr><td style="font-weight:bold;vertical-align:top;">is_pypy</td><td style="vertical-align:top;">:</td><td><div>False</div></td></tr><tr><td style="font-weight:bold;vertical-align:top;">is_source</td><td style="vertical-align:top;">:</td><td><div>True</div></td></tr><tr><td style="font-weight:bold;vertical-align:top;">local_hosts</td><td style="vertical-align:top;">:</td><td><div><table><tr><td><div>admin</div></td></tr><tr><td><div>::ffff:127.0.0.1</div></td></tr><tr><td><div>::1</div></td></tr><tr><td><div>10.192.46.248</div></td></tr><tr><td><div>fe80::840:2412:40d7:393f%5</div></td></tr><tr><td><div>2001:0:5ef5:79fb:246f:1ef0:f53f:d107</div></td></tr><tr><td><div>192.168.56.1</div></td></tr><tr><td><div>fe80::246f:1ef0:f53f:d107%7</div></td></tr><tr><td><div>127.0.0.1</div></td></tr><tr><td><div>fe80::c977:e3a8:3196:b8a7%18</div></td></tr></table></div></td></tr><tr><td style="font-weight:bold;vertical-align:top;">path_info</td><td style="vertical-align:top;">:</td><td><div>/allcomplaints.json</div></td></tr><tr><td style="font-weight:bold;vertical-align:top;">query_string</td><td style="vertical-align:top;">:</td><td><div></div></td></tr><tr><td style="font-weight:bold;vertical-align:top;">remote_addr</td><td style="vertical-align:top;">:</td><td><div>10.192.46.248</div></td></tr><tr><td style="font-weight:bold;vertical-align:top;">remote_port</td><td style="vertical-align:top;">:</td><td><div>64933</div></td></tr><tr><td style="font-weight:bold;vertical-align:top;">request_method</td><td style="vertical-align:top;">:</td><td><div>GET</div></td></tr><tr><td style="font-weight:bold;vertical-align:top;">request_uri</td><td style="vertical-align:top;">:</td><td><div>/MoodlePlus/default/allcomplaints.json</div></td></tr><tr><td style="font-weight:bold;vertical-align:top;">script_name</td><td style="vertical-align:top;">:</td><td><div></div></td></tr><tr><td style="font-weight:bold;vertical-align:top;">server_name</td><td style="vertical-align:top;">:</td><td><div>admin</div></td></tr><tr><td style="font-weight:bold;vertical-align:top;">server_port</td><td style="vertical-align:top;">:</td><td><div>8000</div></td></tr><tr><td style="font-weight:bold;vertical-align:top;">server_protocol</td><td style="vertical-align:top;">:</td><td><div>HTTP/1.1</div></td></tr><tr><td style="font-weight:bold;vertical-align:top;">server_software</td><td style="vertical-align:top;">:</td><td><div>Rocket 1.2.6</div></td></tr><tr><td style="font-weight:bold;vertical-align:top;">web2py_original_uri</td><td style="vertical-align:top;">:</td><td><div>/allcomplaints.json</div></td></tr><tr><td style="font-weight:bold;vertical-align:top;">web2py_path</td><td style="vertical-align:top;">:</td><td><div>C:\\Users\\Harshil\\Desktop\\Acads\\COP 290\\Assignment 1\\moodle-plus</div></td></tr><tr><td style="font-weight:bold;vertical-align:top;">web2py_version</td><td style="vertical-align:top;">:</td><td><div>2.10.3-stable+timestamp.2015.04.02.21.42.07</div></td></tr><tr><td style="font-weight:bold;vertical-align:top;">wsgi.errors</td><td style="vertical-align:top;">:</td><td><div>&lt;open file &#x27;&lt;stderr&gt;&#x27;, mode &#x27;w&#x27; at 0x002ED0D0&gt;</div></td></tr><tr><td style="font-weight:bold;vertical-align:top;">wsgi.file_wrapper</td><td style="vertical-align:top;">:</td><td><div>&lt;class wsgiref.util.FileWrapper at 0x028A31F0&gt;</div></td></tr><tr><td style="font-weight:bold;vertical-align:top;">wsgi.input</td><td style="vertical-align:top;">:</td><td><div>&lt;socket._fileobject object at 0x07FE20F0&gt;</div></td></tr><tr><td style="font-weight:bold;vertical-align:top;">wsgi.multiprocess</td><td style="vertical-align:top;">:</td><td><div>False</div></td></tr><tr><td style="font-weight:bold;vertical-align:top;">wsgi.multithread</td><td style="vertical-align:top;">:</td><td><div>True</div></td></tr><tr><td style="font-weight:bold;vertical-align:top;">wsgi.run_once</td><td style="vertical-align:top;">:</td><td><div>False</div></td></tr><tr><td style="font-weight:bold;vertical-align:top;">wsgi.url_scheme</td><td style="vertical-align:top;">:</td><td><div>http</div></td></tr><tr><td style="font-weight:bold;vertical-align:top;">wsgi.version</td><td style="vertical-align:top;">:</td><td><div><table><tr><td><div>1</div></td></tr><tr><td><div>0</div></td></tr></table></div></td></tr><tr><td style="font-weight:bold;vertical-align:top;">wsgi_errors</td><td style="vertical-align:top;">:</td><td><div>&lt;open file &#x27;&lt;stderr&gt;&#x27;, mode &#x27;w&#x27; at 0x002ED0D0&gt;</div></td></tr><tr><td style="font-weight:bold;vertical-align:top;">wsgi_file_wrapper</td><td style="vertical-align:top;">:</td><td><div>&lt;class wsgiref.util.FileWrapper at 0x028A31F0&gt;</div></td></tr><tr><td style="font-weight:bold;vertical-align:top;">wsgi_input</td><td style="vertical-align:top;">:</td><td><div>&lt;socket._fileobject object at 0x07FE20F0&gt;</div></td></tr><tr><td style="font-weight:bold;vertical-align:top;">wsgi_multiprocess</td><td style="vertical-align:top;">:</td><td><div>False</div></td></tr><tr><td style="font-weight:bold;vertical-align:top;">wsgi_multithread</td><td style="vertical-align:top;">:</td><td><div>True</div></td></tr><tr><td style="font-weight:bold;vertical-align:top;">wsgi_run_once</td><td style="vertical-align:top;">:</td><td><div>False</div></td></tr><tr><td style="font-weight:bold;vertical-align:top;">wsgi_url_scheme</td><td style="vertical-align:top;">:</td><td><div>http</div></td></tr><tr><td style="font-weight:bold;vertical-align:top;">wsgi_version</td><td style="vertical-align:top;">:</td><td><div><table><tr><td><div>1</div></td></tr><tr><td><div>0</div></td></tr></table></div></td></tr></table></div></td></tr><tr><td style="font-weight:bold;vertical-align:top;">extension</td><td style="vertical-align:top;">:</td><td><div>json</div></td></tr><tr><td style="font-weight:bold;vertical-align:top;">folder</td><td style="vertical-align:top;">:</td><td><div>C:\\Users\\Harshil\\Desktop\\Acads\\COP 290\\Assignment 1\\moodle-plus\\applications\\MoodlePlus\\</div></td></tr><tr><td style="font-weight:bold;vertical-align:top;">function</td><td style="vertical-align:top;">:</td><td><div>allcomplaints</div></td></tr><tr><td style="font-weight:bold;vertical-align:top;">global_settings</td><td style="vertical-align:top;">:</td><td><div><table><tr><td style="font-weight:bold;vertical-align:top;">app_folders</td><td style="vertical-align:top;">:</td><td><div>set([&#x27;C:\\\\Users\\\\Harshil\\\\Desktop\\\\Acads\\\\COP 290\\\\Assignment 1\\\\moodle-plus\\\\applications\\\\MoodlePlus\\\\&#x27;, &#x27;C:\\\\Users\\\\Harshil\\\\Desktop\\\\Acads\\\\COP 290\\\\Assignment 1\\\\moodle-plus\\\\applications\\\\admin\\\\&#x27;])</div></td></tr><tr><td style="font-weight:bold;vertical-align:top;">applications_parent</td><td style="vertical-align:top;">:</td><td><div>C:\\Users\\Harshil\\Desktop\\Acads\\COP 290\\Assignment 1\\moodle-plus</div></td></tr><tr><td style="font-weight:bold;vertical-align:top;">cmd_args</td><td style="vertical-align:top;">:</td><td><div><table></table></div></td></tr><tr><td style="font-weight:bold;vertical-align:top;">cmd_options</td><td style="vertical-align:top;">:</td><td><div>&lt;Values at 0x1fc2300: {&#x27;verbose&#x27;: False, &#x27;ip&#x27;: &#x27;127.0.0.1&#x27;, &#x27;debuglevel&#x27;: 30, &#x27;with_scheduler&#x27;: False, &#x27;ips&#x27;: [&#x27;fe80::840:2412:40d7:393f%5&#x27;, &#x27;2001:0:5ef5:79fb:246f:1ef0:f53f:d107&#x27;, &#x27;fe80::c977:e3a8:3196:b8a7%18&#x27;, &#x27;fe80::246f:1ef0:f53f:d107%7&#x27;, &#x27;10.192.46.248&#x27;, &#x27;192.168.56.1&#x27;], &#x27;shutdown_timeout&#x27;: 5, &#x27;taskbar&#x27;: False, &#x27;with_coverage&#x27;: False, &#x27;scheduler_groups&#x27;: None, &#x27;port&#x27;: 8000, &#x27;maxthreads&#x27;: None, &#x27;softcron&#x27;: False, &#x27;server_name&#x27;: &#x27;admin&#x27;, &#x27;bpython&#x27;: False, &#x27;nogui&#x27;: False, &#x27;pid_filename&#x27;: &#x27;httpserver.pid&#x27;, &#x27;print_errors&#x27;: False, &#x27;extcron&#x27;: False, &#x27;runcron&#x27;: False, &#x27;run_system_tests&#x27;: False, &#x27;test&#x27;: None, &#x27;folder&#x27;: &#x27;C:\\\\Users\\\\Harshil\\\\Desktop\\\\Acads\\\\COP 290\\\\Assignment 1\\\\moodle-plus&#x27;, &#x27;config&#x27;: &#x27;&#x27;, &#x27;minthreads&#x27;: None, &#x27;shell&#x27;: None, &#x27;run&#x27;: &#x27;&#x27;, &#x27;log_filename&#x27;: &#x27;httpserver.log&#x27;, &#x27;profiler_dir&#x27;: None, &#x27;args&#x27;: [&#x27;&#x27;], &#x27;socket_timeout&#x27;: 5, &#x27;ssl_ca_certificate&#x27;: None, &#x27;scheduler&#x27;: None, &#x27;interfaces&#x27;: None, &#x27;ssl_private_key&#x27;: &#x27;&#x27;, &#x27;gae&#x27;: None, &#x27;password&#x27;: &#x27;&lt;ask&gt;&#x27;, &#x27;request_queue_size&#x27;: 5, &#x27;ssl_certificate&#x27;: &#x27;&#x27;, &#x27;cronjob&#x27;: False, &#x27;numthreads&#x27;: None, &#x27;quiet&#x27;: False, &#x27;import_models&#x27;: False, &#x27;timeout&#x27;: 10, &#x27;plain&#x27;: False, &#x27;nobanner&#x27;: False}&gt;</div></td></tr><tr><td style="font-weight:bold;vertical-align:top;">db_sessions</td><td style="vertical-align:top;">:</td><td><div>set([])</div></td></tr><tr><td style="font-weight:bold;vertical-align:top;">debugging</td><td style="vertical-align:top;">:</td><td><div>True</div></td></tr><tr><td style="font-weight:bold;vertical-align:top;">gluon_parent</td><td style="vertical-align:top;">:</td><td><div>C:\\Users\\Harshil\\Desktop\\Acads\\COP 290\\Assignment 1\\moodle-plus</div></td></tr><tr><td style="font-weight:bold;vertical-align:top;">is_jython</td><td style="vertical-align:top;">:</td><td><div>False</div></td></tr><tr><td style="font-weight:bold;vertical-align:top;">is_pypy</td><td style="vertical-align:top;">:</td><td><div>False</div></td></tr><tr><td style="font-weight:bold;vertical-align:top;">is_source</td><td style="vertical-align:top;">:</td><td><div>True</div></td></tr><tr><td style="font-weight:bold;vertical-align:top;">local_hosts</td><td style="vertical-align:top;">:</td><td><div><table><tr><td><div>admin</div></td></tr><tr><td><div>::ffff:127.0.0.1</div></td></tr><tr><td><div>::1</div></td></tr><tr><td><div>10.192.46.248</div></td></tr><tr><td><div>fe80::840:2412:40d7:393f%5</div></td></tr><tr><td><div>2001:0:5ef5:79fb:246f:1ef0:f53f:d107</div></td></tr><tr><td><div>192.168.56.1</div></td></tr><tr><td><div>fe80::246f:1ef0:f53f:d107%7</div></td></tr><tr><td><div>127.0.0.1</div></td></tr><tr><td><div>fe80::c977:e3a8:3196:b8a7%18</div></td></tr></table></div></td></tr><tr><td style="font-weight:bold;vertical-align:top;">web2py_version</td><td style="vertical-align:top;">:</td><td><div>2.10.3-stable+timestamp.2015.04.02.21.42.07</div></td></tr></table></div></td></tr><tr><td style="font-weight:bold;vertical-align:top;">is_https</td><td style="vertical-align:top;">:</td><td><div>False</div></td></tr><tr><td style="font-weight:bold;vertical-align:top;">is_local</td><td style="vertical-align:top;">:</td><td><div>True</div></td></tr><tr><td style="font-weight:bold;vertical-align:top;">is_restful</td><td style="vertical-align:top;">:</td><td><div>False</div></td></tr><tr><td style="font-weight:bold;vertical-align:top;">is_sheduler</td><td style="vertical-align:top;">:</td><td><div>None</div></td></tr><tr><td style="font-weight:bold;vertical-align:top;">is_shell</td><td style="vertical-align:top;">:</td><td><div>None</div></td></tr><tr><td style="font-weight:bold;vertical-align:top;">now</td><td style="vertical-align:top;">:</td><td><div>datetime.datetime(2016, 3, 29, 19, 38, 33, 931000)</div></td></tr><tr><td style="font-weight:bold;vertical-align:top;">url</td><td style="vertical-align:top;">:</td><td><div>/allcomplaints.json</div></td></tr><tr><td style="font-weight:bold;vertical-align:top;">utcnow</td><td style="vertical-align:top;">:</td><td><div>datetime.datetime(2016, 3, 29, 14, 8, 33, 931000)</div></td></tr><tr><td style="font-weight:bold;vertical-align:top;">uuid</td><td style="vertical-align:top;">:</td><td><div>MoodlePlus/10.192.46.248.2016-03-29.19-38-33.f9afcbb9-64f7-4027-82f1-c5e17563caee</div></td></tr><tr><td style="font-weight:bold;vertical-align:top;">wsgi</td><td style="vertical-align:top;">:</td><td><div>&lt;gluon.main.LazyWSGI object at 0x07D7D550&gt;</div></td></tr></table></div>'
tRp70
sS'frames'
p71
(lp72
(dp73
S'file'
p74
S'C:\\Users\\Harshil\\Desktop\\Acads\\COP 290\\Assignment 1\\moodle-plus\\gluon\\restricted.py'
p75
sS'dump'
p76
(dp77
S'environment'
p78
S"{'A': <class 'gluon.html.A'>, 'ANY_OF': <class 'gluon.validators.ANY_OF'>, 'ASSIGNJS': <function ASSIGNJS>, 'AppConfig': <function AppConfig>, 'Auth': <class 'gluon.tools.Auth'>, 'B': <class 'gluon.html.B'>, 'BEAUTIFY': <class 'gluon.html.BEAUTIFY'>, 'BODY': <class 'gluon.html.BODY'>, 'BR': <class 'gluon.html.BR'>, 'BUTTON': <class 'gluon.html.BUTTON'>, ...}"
p79
sS'ccode'
p80
S'<code object <module> at 071F7380, file "C:\\User...ions\\MoodlePlus\\controllers/default.py", line 11>'
p81
ssS'lnum'
p82
I227
sS'lines'
p83
(dp84
I224
S'            ccode = code'
p85
sI225
S'        else:'
p86
sI226
S'            ccode = compile2(code, layer)'
p87
sI227
S'        exec ccode in environment'
p88
sI228
S'    except HTTP:'
p89
sI229
S'        raise'
p90
sI230
S'    except RestrictedError:'
p91
sI231
S'        # do not encapsulate (obfuscate) the original RestrictedError'
p92
sI222
S'    try:'
p93
sI223
S'        if isinstance(code, types.CodeType):'
p94
ssS'call'
p95
S"(code='# -*- coding: utf-8 -*-\\n# this file is released ...\\n\\nresponse._vars=response._caller(allcomplaints)\\n', environment={'A': <class 'gluon.html.A'>, 'ANY_OF': <class 'gluon.validators.ANY_OF'>, 'ASSIGNJS': <function ASSIGNJS>, 'AppConfig': <function AppConfig>, 'Auth': <class 'gluon.tools.Auth'>, 'B': <class 'gluon.html.B'>, 'BEAUTIFY': <class 'gluon.html.BEAUTIFY'>, 'BODY': <class 'gluon.html.BODY'>, 'BR': <class 'gluon.html.BR'>, 'BUTTON': <class 'gluon.html.BUTTON'>, ...}, layer=r'C:\\Users\\Harshil\\Desktop\\Acads\\COP 290\\Assignmen...us\\applications\\MoodlePlus\\controllers/default.py')"
p96
sS'func'
p97
S'restricted'
p98
sa(dp99
g74
S'C:\\Users\\Harshil\\Desktop\\Acads\\COP 290\\Assignment 1\\moodle-plus\\applications\\MoodlePlus\\controllers\\default.py'
p100
sg76
(dp101
sg82
I593
sg83
(dp102
I582
S'Url: /threads/new.json'
p103
sI583
S'Input params:'
p104
sI584
S"    title: (string) can't be empty"
p105
sI585
S"    description: (string) can't be empty"
p106
sI586
S'    course_code: (string) must be a registered courses'
p107
sI587
S'Output params:'
p108
sI588
S'    success: (bool) True or False depending on whether thread was posted'
p109
sI589
S'    thread_id: (bool) id of new thread created'
p110
sI590
S''
sI591
S'    """'
p111
ssg95
S'()'
p112
sg97
S'<module>'
p113
sa(dp114
g74
S'C:\\Users\\Harshil\\Desktop\\Acads\\COP 290\\Assignment 1\\moodle-plus\\gluon\\globals.py'
p115
sg76
(dp116
S'self'
p117
S'undefined'
p118
sS'f'
S'<function allcomplaints>'
p119
ssg82
I393
sg83
(dp120
I388
S"        self.flash = ''            # used by the default view layout"
p121
sI389
S'        self.meta = Storage()      # used by web2py_ajax.html'
p122
sI390
S'        self.menu = []             # used by the default view layout'
p123
sI391
S'        self.files = []            # used by web2py_ajax.html'
p124
sI392
S'        self._vars = None'
p125
sI393
S'        self._caller = lambda f: f()'
p126
sI394
S'        self._view_environment = None'
p127
sI395
S'        self._custom_commit = None'
p128
sI396
S'        self._custom_rollback = None'
p129
sI397
S"        self.generic_patterns = ['*']"
p130
ssg95
S'(f=<function allcomplaints>)'
p131
sg97
S'<lambda>'
p132
sa(dp133
g74
S'C:\\Users\\Harshil\\Desktop\\Acads\\COP 290\\Assignment 1\\moodle-plus\\applications\\MoodlePlus\\controllers\\default.py'
p134
sg76
(dp135
S'global mycomplaints'
p136
S'<function mycomplaints>'
p137
sS'global db'
p138
S'<DAL uri="sqlite://storage.sqlite">'
p139
sS'db.users'
p140
S'<Table users (id,first_name,last_name,email,user...n_key,reset_password_key,registration_id,hostel)>'
p141
sS').select'
p142
g118
sS'builtindict'
p143
S"<type 'dict'>"
p144
ssg82
I202
sg83
(dp145
I197
S'#       elif complaint.type_==1:'
p146
sI198
S'#           if db(db.users().user_id==complaint.user_id).select().first().hostel==auth.user.hostel:'
p147
sI199
S'#               res.append(complaints)'
p148
sI200
S'        elif complaint.type_==2:'
p149
sI201
S'            res.append(complaint)'
p150
sI202
S'    return dict(mycomplaints=db(db.users()).select())'
p151
sI203
S''
sI204
S'def userlist():#list of all users ; /userlist.json'
p152
sI205
S'    return dict(val=db(db.users).select())'
p153
sI206
S''
ssg95
S'()'
p154
sg97
S'allcomplaints'
p155
sa(dp156
g74
S'C:\\Users\\Harshil\\Desktop\\Acads\\COP 290\\Assignment 1\\moodle-plus\\gluon\\packages\\dal\\pydal\\objects.py'
p157
sg76
(dp158
S'self.query'
p159
S'None'
p160
sS'adapter.select'
p161
S'<bound method SQLiteAdapter.select of <pydal.adapters.sqlite.SQLiteAdapter object>>'
p162
sS'fields'
p163
S'[]'
p164
sS'adapter'
p165
S'<pydal.adapters.sqlite.SQLiteAdapter object>'
p166
sS'attributes'
p167
g21
sS'self'
p168
S'<Set None>'
p169
ssg82
I2093
sg83
(dp170
I2088
S"                                    attributes.get('join',None),"
p171
sI2089
S"                                    attributes.get('left',None),"
p172
sI2090
S"                                    attributes.get('orderby',None),"
p173
sI2091
S"                                    attributes.get('groupby',None))"
p174
sI2092
S'        fields = adapter.expand_all(fields, tablenames)'
p175
sI2093
S'        return adapter.select(self.query,fields,attributes)'
p176
sI2094
S''
sI2095
S'    def nested_select(self,*fields,**attributes):'
p177
sI2096
S'        return Expression(self.db,self._select(*fields,**attributes))'
p178
sI2097
S''
ssg95
S'(self=<Set None>, *fields=[], **attributes={})'
p179
sg97
S'select'
p180
sa(dp181
g74
S'C:\\Users\\Harshil\\Desktop\\Acads\\COP 290\\Assignment 1\\moodle-plus\\gluon\\packages\\dal\\pydal\\adapters\\sqlite.py'
p182
sg76
(dp183
S'fields'
p184
S'[]'
p185
sS'self'
p186
S'<pydal.adapters.sqlite.SQLiteAdapter object>'
p187
sS').select'
p188
S'<bound method SQLiteAdapter.select of <pydal.adapters.sqlite.SQLiteAdapter object>>'
p189
sS'attributes'
p190
g21
sS'global SQLiteAdapter'
p191
S"<class 'pydal.adapters.sqlite.SQLiteAdapter'>"
p192
sS'query'
p193
S'None'
p194
sS'builtinsuper'
p195
S"<type 'super'>"
p196
ssg82
I125
sg83
(dp197
I128
S'SPATIALLIBS = {'
p198
sI129
S"    'Windows':'libspatialite',"
p199
sI120
S'        Note that the entire database, rather than one record, is locked'
p200
sI121
S'        (it will be locked eventually anyway by the following UPDATE).'
p201
sI122
S'        """'
p202
sI123
S"        if attributes.get('for_update', False) and not 'cache' in attributes:"
p203
sI124
S"            self.execute('BEGIN IMMEDIATE TRANSACTION;')"
p204
sI125
S'        return super(SQLiteAdapter, self).select(query, fields, attributes)'
p205
sI126
S''
sI127
S''
ssg95
S'(self=<pydal.adapters.sqlite.SQLiteAdapter object>, query=None, fields=[], attributes={})'
p206
sg97
g180
sa(dp207
g74
S'C:\\Users\\Harshil\\Desktop\\Acads\\COP 290\\Assignment 1\\moodle-plus\\gluon\\packages\\dal\\pydal\\adapters\\base.py'
p208
sg76
(dp209
S'self._select'
p210
S'<bound method SQLiteAdapter._select of <pydal.adapters.sqlite.SQLiteAdapter object>>'
p211
sS'fields'
p212
S'[]'
p213
sS'self'
p214
S'<pydal.adapters.sqlite.SQLiteAdapter object>'
p215
sS'sql'
p216
g118
sS'query'
p217
S'None'
p218
sS'attributes'
p219
g21
ssg82
I1226
sg83
(dp220
I1221
S''
sI1222
S'    def select(self, query, fields, attributes):'
p221
sI1223
S'        """'
p222
sI1224
S'        Always returns a Rows object, possibly empty.'
p223
sI1225
S'        """'
p224
sI1226
S'        sql = self._select(query, fields, attributes)'
p225
sI1227
S"        cache = attributes.get('cache', None)"
p226
sI1228
S"        if cache and attributes.get('cacheable',False):"
p227
sI1229
S"            del attributes['cache']"
p228
sI1230
S'            (cache_model, time_expire) = cache'
p229
ssg95
S'(self=<pydal.adapters.sqlite.SQLiteAdapter object>, query=None, fields=[], attributes={})'
p230
sg97
g180
sa(dp231
g74
S'C:\\Users\\Harshil\\Desktop\\Acads\\COP 290\\Assignment 1\\moodle-plus\\gluon\\packages\\dal\\pydal\\adapters\\base.py'
p232
sg76
(dp233
S'builtinSyntaxError'
p234
S"<type 'exceptions.SyntaxError'>"
p235
ssg82
I1058
sg83
(dp236
I1056
S''
sI1057
S'        if len(tablenames) < 1:'
p237
sI1058
S"            raise SyntaxError('Set: no tables selected')"
p238
sI1059
S'        def colexpand(field):'
p239
sI1060
S'            return self.expand(field, colnames=True)'
p240
sI1061
S'        self._colnames = map(colexpand, fields)'
p241
sI1062
S'        def geoexpand(field):'
p242
sI1053
S'            for tablename in tables(field):'
p243
sI1054
S'                if not tablename in tablenames:'
p244
sI1055
S'                    tablenames.append(tablename)'
p245
ssg95
S'(self=<pydal.adapters.sqlite.SQLiteAdapter object>, query=None, fields=[], attributes={})'
p246
sg97
S'_select'
p247
sasS'pyver'
p248
S'Python 2.7.9: C:\\Users\\Harshil\\Desktop\\Acads\\COP 290\\Assignment 1\\moodle-plus\\web2py.exe (prefix: C:\\Python27)'
p249
sS'session'
p250
g69
(S's\x1a\x0b\x00\x00<div><table><tr><td style="font-weight:bold;vertical-align:top;">auth</td><td style="vertical-align:top;">:</td><td><div><table><tr><td style="font-weight:bold;vertical-align:top;">expiration</td><td style="vertical-align:top;">:</td><td><div>3600</div></td></tr><tr><td style="font-weight:bold;vertical-align:top;">hmac_key</td><td style="vertical-align:top;">:</td><td><div>1d573c76-b339-4a63-8e66-a8928502fece</div></td></tr><tr><td style="font-weight:bold;vertical-align:top;">last_visit</td><td style="vertical-align:top;">:</td><td><div>datetime.datetime(2016, 3, 29, 19, 38, 25, 918000)</div></td></tr><tr><td style="font-weight:bold;vertical-align:top;">user</td><td style="vertical-align:top;">:</td><td><div><table><tr><td style="font-weight:bold;vertical-align:top;">email</td><td style="vertical-align:top;">:</td><td><div>cs1140222@cse.iitd.ac.in</div></td></tr><tr><td style="font-weight:bold;vertical-align:top;">entry_no</td><td style="vertical-align:top;">:</td><td><div>2014CS10222</div></td></tr><tr><td style="font-weight:bold;vertical-align:top;">first_name</td><td style="vertical-align:top;">:</td><td><div>Harshil</div></td></tr><tr><td style="font-weight:bold;vertical-align:top;">hostel</td><td style="vertical-align:top;">:</td><td><div>1L</div></td></tr><tr><td style="font-weight:bold;vertical-align:top;">id</td><td style="vertical-align:top;">:</td><td><div>9L</div></td></tr><tr><td style="font-weight:bold;vertical-align:top;">last_name</td><td style="vertical-align:top;">:</td><td><div>Meena</div></td></tr><tr><td style="font-weight:bold;vertical-align:top;">registration_id</td><td style="vertical-align:top;">:</td><td><div></div></td></tr><tr><td style="font-weight:bold;vertical-align:top;">registration_key</td><td style="vertical-align:top;">:</td><td><div></div></td></tr><tr><td style="font-weight:bold;vertical-align:top;">reset_password_key</td><td style="vertical-align:top;">:</td><td><div></div></td></tr><tr><td style="font-weight:bold;vertical-align:top;">type_</td><td style="vertical-align:top;">:</td><td><div>0L</div></td></tr><tr><td style="font-weight:bold;vertical-align:top;">username</td><td style="vertical-align:top;">:</td><td><div>cs1140222</div></td></tr></table></div></td></tr><tr><td style="font-weight:bold;vertical-align:top;">user_groups</td><td style="vertical-align:top;">:</td><td><div><table></table></div></td></tr></table></div></td></tr><tr><td style="font-weight:bold;vertical-align:top;">flash</td><td style="vertical-align:top;">:</td><td><div></div></td></tr><tr><td style="font-weight:bold;vertical-align:top;">last_orderby</td><td style="vertical-align:top;">:</td><td><div>None</div></td></tr><tr><td style="font-weight:bold;vertical-align:top;">last_query</td><td style="vertical-align:top;">:</td><td><div>db.compresc.id&gt;0</div></td></tr></table></div>'
tRp251
sS'etype'
p252
S"<type 'exceptions.SyntaxError'>"
p253
sS'date'
p254
S'Tue Mar 29 19:38:34 2016'
p255
sS'response'
p256
g69
(S's\xf8\x1e\x00\x00<div><table><tr><td style="font-weight:bold;vertical-align:top;">body</td><td style="vertical-align:top;">:</td><td><div>&lt;cStringIO.StringO object at 0x080BF040&gt;</div></td></tr><tr><td style="font-weight:bold;vertical-align:top;">cookies</td><td style="vertical-align:top;">:</td><td><div><table><tr><td style="font-weight:bold;vertical-align:top;">session_id_moodleplus</td><td style="vertical-align:top;">:</td><td><div>10.192.46.248-bc501ae5-c8fb-4f67-8b88-eaba6a1b011a<table><tr><td style="font-weight:bold;vertical-align:top;">comment</td><td style="vertical-align:top;">:</td><td><div></div></td></tr><tr><td style="font-weight:bold;vertical-align:top;">domain</td><td style="vertical-align:top;">:</td><td><div></div></td></tr><tr><td style="font-weight:bold;vertical-align:top;">expires</td><td style="vertical-align:top;">:</td><td><div></div></td></tr><tr><td style="font-weight:bold;vertical-align:top;">httponly</td><td style="vertical-align:top;">:</td><td><div></div></td></tr><tr><td style="font-weight:bold;vertical-align:top;">max-age</td><td style="vertical-align:top;">:</td><td><div></div></td></tr><tr><td style="font-weight:bold;vertical-align:top;">path</td><td style="vertical-align:top;">:</td><td><div>/</div></td></tr><tr><td style="font-weight:bold;vertical-align:top;">secure</td><td style="vertical-align:top;">:</td><td><div></div></td></tr><tr><td style="font-weight:bold;vertical-align:top;">version</td><td style="vertical-align:top;">:</td><td><div></div></td></tr></table></div></td></tr></table></div></td></tr><tr><td style="font-weight:bold;vertical-align:top;">delimiters</td><td style="vertical-align:top;">:</td><td><div><table><tr><td><div>{{</div></td></tr><tr><td><div>}}</div></td></tr></table></div></td></tr><tr><td style="font-weight:bold;vertical-align:top;">files</td><td style="vertical-align:top;">:</td><td><div><table></table></div></td></tr><tr><td style="font-weight:bold;vertical-align:top;">flash</td><td style="vertical-align:top;">:</td><td><div></div></td></tr><tr><td style="font-weight:bold;vertical-align:top;">form_label_separator</td><td style="vertical-align:top;">:</td><td><div></div></td></tr><tr><td style="font-weight:bold;vertical-align:top;">formstyle</td><td style="vertical-align:top;">:</td><td><div>bootstrap3_inline</div></td></tr><tr><td style="font-weight:bold;vertical-align:top;">generic_patterns</td><td style="vertical-align:top;">:</td><td><div><table><tr><td><div>*</div></td></tr></table></div></td></tr><tr><td style="font-weight:bold;vertical-align:top;">google_analytics_id</td><td style="vertical-align:top;">:</td><td><div>None</div></td></tr><tr><td style="font-weight:bold;vertical-align:top;">headers</td><td style="vertical-align:top;">:</td><td><div><table><tr><td style="font-weight:bold;vertical-align:top;">X-Powered-By</td><td style="vertical-align:top;">:</td><td><div>web2py</div></td></tr></table></div></td></tr><tr><td style="font-weight:bold;vertical-align:top;">logo</td><td style="vertical-align:top;">:</td><td><div><a class="navbar-brand" href="/" id="web2py-logo"><b>Moodle&nbsp;<span>Plus</span></b>&trade;&nbsp;</a></div></td></tr><tr><td style="font-weight:bold;vertical-align:top;">menu</td><td style="vertical-align:top;">:</td><td><div><table><tr><td><div><table><tr><td><div>Home</div></td></tr><tr><td><div>False</div></td></tr><tr><td><div>/index.json</div></td></tr><tr><td><div><table></table></div></td></tr></table></div></td></tr><tr><td><div><table><tr><td><div>My Course</div></td></tr><tr><td><div>False</div></td></tr><tr><td><div>/courses/index.json</div></td></tr><tr><td><div><table></table></div></td></tr></table></div></td></tr></table></div></td></tr><tr><td style="font-weight:bold;vertical-align:top;">meta</td><td style="vertical-align:top;">:</td><td><div><table><tr><td style="font-weight:bold;vertical-align:top;">author</td><td style="vertical-align:top;">:</td><td><div>Your Name &lt;you@example.com&gt;</div></td></tr><tr><td style="font-weight:bold;vertical-align:top;">description</td><td style="vertical-align:top;">:</td><td><div>a cool new app</div></td></tr><tr><td style="font-weight:bold;vertical-align:top;">generator</td><td style="vertical-align:top;">:</td><td><div>Web2py Web Framework</div></td></tr><tr><td style="font-weight:bold;vertical-align:top;">keywords</td><td style="vertical-align:top;">:</td><td><div>web2py, python, framework</div></td></tr></table></div></td></tr><tr><td style="font-weight:bold;vertical-align:top;">models_to_run</td><td style="vertical-align:top;">:</td><td><div><table><tr><td><div>^\\w+\\.py$</div></td></tr><tr><td><div>^default/\\w+\\.py$</div></td></tr><tr><td><div>^default/allcomplaints/\\w+\\.py$</div></td></tr></table></div></td></tr><tr><td style="font-weight:bold;vertical-align:top;">postprocessing</td><td style="vertical-align:top;">:</td><td><div><table></table></div></td></tr><tr><td style="font-weight:bold;vertical-align:top;">session_client</td><td style="vertical-align:top;">:</td><td><div>10.192.46.248</div></td></tr><tr><td style="font-weight:bold;vertical-align:top;">session_cookie_compression_level</td><td style="vertical-align:top;">:</td><td><div>None</div></td></tr><tr><td style="font-weight:bold;vertical-align:top;">session_cookie_expires</td><td style="vertical-align:top;">:</td><td><div>None</div></td></tr><tr><td style="font-weight:bold;vertical-align:top;">session_cookie_key</td><td style="vertical-align:top;">:</td><td><div>None</div></td></tr><tr><td style="font-weight:bold;vertical-align:top;">session_data_name</td><td style="vertical-align:top;">:</td><td><div>session_data_moodleplus</div></td></tr><tr><td style="font-weight:bold;vertical-align:top;">session_file</td><td style="vertical-align:top;">:</td><td><div>&lt;open file &#x27;C:\\\\Users\\\\Harshil\\\\Desktop\\\\Acads\\\\COP 290\\\\Assignment 1\\\\moodle-plus\\\\applications\\\\MoodlePlus\\\\sessions\\\\13d\\\\007\\\\10.192.46.248-bc501ae5-c8fb-4f67-8b88-eaba6a1b011a&#x27;, mode &#x27;rb+&#x27; at 0x08463B78&gt;</div></td></tr><tr><td style="font-weight:bold;vertical-align:top;">session_filename</td><td style="vertical-align:top;">:</td><td><div>C:\\Users\\Harshil\\Desktop\\Acads\\COP 290\\Assignment 1\\moodle-plus\\applications\\MoodlePlus\\sessions\\10.192.46.248-bc501ae5-c8fb-4f67-8b88-eaba6a1b011a</div></td></tr><tr><td style="font-weight:bold;vertical-align:top;">session_hash</td><td style="vertical-align:top;">:</td><td><div>5f6b0236e4b2917036ef747ef10808f4</div></td></tr><tr><td style="font-weight:bold;vertical-align:top;">session_id</td><td style="vertical-align:top;">:</td><td><div>10.192.46.248-bc501ae5-c8fb-4f67-8b88-eaba6a1b011a</div></td></tr><tr><td style="font-weight:bold;vertical-align:top;">session_id_name</td><td style="vertical-align:top;">:</td><td><div>session_id_moodleplus</div></td></tr><tr><td style="font-weight:bold;vertical-align:top;">session_locked</td><td style="vertical-align:top;">:</td><td><div>True</div></td></tr><tr><td style="font-weight:bold;vertical-align:top;">session_masterapp</td><td style="vertical-align:top;">:</td><td><div>MoodlePlus</div></td></tr><tr><td style="font-weight:bold;vertical-align:top;">session_new</td><td style="vertical-align:top;">:</td><td><div>False</div></td></tr><tr><td style="font-weight:bold;vertical-align:top;">session_storage_type</td><td style="vertical-align:top;">:</td><td><div>file</div></td></tr><tr><td style="font-weight:bold;vertical-align:top;">status</td><td style="vertical-align:top;">:</td><td><div>200</div></td></tr><tr><td style="font-weight:bold;vertical-align:top;">subtitle</td><td style="vertical-align:top;">:</td><td><div></div></td></tr><tr><td style="font-weight:bold;vertical-align:top;">title</td><td style="vertical-align:top;">:</td><td><div>Moodleplus</div></td></tr><tr><td style="font-weight:bold;vertical-align:top;">view</td><td style="vertical-align:top;">:</td><td><div>default/allcomplaints.json</div></td></tr></table></div>'
tRp257
sS'locals'
p258
(dp259
S'tables'
p260
S'<bound method SQLiteAdapter.tables of <pydal.adapters.sqlite.SQLiteAdapter object>>'
p261
sS'fields'
p262
S'[]'
p263
sS'self'
p264
S'<pydal.adapters.sqlite.SQLiteAdapter object>'
p265
sS'tablenames'
p266
S'[]'
p267
sS'tablenames_for_common_filters'
p268
S'[]'
p269
sS'query'
p270
S'None'
p271
sS'attributes'
p272
g21
sS'args_get'
p273
S'<built-in method get of dict object>'
p274
sssS'traceback'
p275
S'Traceback (most recent call last):\n  File "C:\\Users\\Harshil\\Desktop\\Acads\\COP 290\\Assignment 1\\moodle-plus\\gluon\\restricted.py", line 227, in restricted\n    exec ccode in environment\n  File "C:\\Users\\Harshil\\Desktop\\Acads\\COP 290\\Assignment 1\\moodle-plus\\applications\\MoodlePlus\\controllers/default.py", line 593, in <module>\n  File "C:\\Users\\Harshil\\Desktop\\Acads\\COP 290\\Assignment 1\\moodle-plus\\gluon\\globals.py", line 393, in <lambda>\n    self._caller = lambda f: f()\n  File "C:\\Users\\Harshil\\Desktop\\Acads\\COP 290\\Assignment 1\\moodle-plus\\applications\\MoodlePlus\\controllers/default.py", line 202, in allcomplaints\n    return dict(mycomplaints=db(db.users()).select())\n  File "C:\\Users\\Harshil\\Desktop\\Acads\\COP 290\\Assignment 1\\moodle-plus\\gluon\\packages\\dal\\pydal\\objects.py", line 2093, in select\n    return adapter.select(self.query,fields,attributes)\n  File "C:\\Users\\Harshil\\Desktop\\Acads\\COP 290\\Assignment 1\\moodle-plus\\gluon\\packages\\dal\\pydal\\adapters\\sqlite.py", line 125, in select\n    return super(SQLiteAdapter, self).select(query, fields, attributes)\n  File "C:\\Users\\Harshil\\Desktop\\Acads\\COP 290\\Assignment 1\\moodle-plus\\gluon\\packages\\dal\\pydal\\adapters\\base.py", line 1226, in select\n    sql = self._select(query, fields, attributes)\n  File "C:\\Users\\Harshil\\Desktop\\Acads\\COP 290\\Assignment 1\\moodle-plus\\gluon\\packages\\dal\\pydal\\adapters\\base.py", line 1058, in _select\n    raise SyntaxError(\'Set: no tables selected\')\nSyntaxError: Set: no tables selected\n'
p276
s.